; Function Attrs: inlinehint nounwind uwtable
define internal fastcc range(i32 -32, 1) i32 @pmix_bfrops_base_tma_copy_dkstats(ptr noundef nonnull writeonly captures(none) %0, ptr noundef readonly captures(none) %1, ptr noundef %2) unnamed_addr #4 {
  %.not.i.i = icmp eq ptr %2, null
  br i1 %.not.i.i, label %7, label %4

4:                                                ; preds = %3
  %5 = load ptr, ptr %2, align 8, !tbaa !39
  %6 = tail call ptr %5(ptr noundef nonnull %2, i64 noundef 96) #17
  br label %pmix_tma_malloc.exit.i

7:                                                ; preds = %3
  %8 = tail call noalias dereferenceable_or_null(96) ptr @malloc(i64 noundef 96) #18
  br label %pmix_tma_malloc.exit.i

pmix_tma_malloc.exit.i:                           ; preds = %7, %4
  %.0.i.i = phi ptr [ %6, %4 ], [ %8, %7 ]
  %.not.i = icmp eq ptr %.0.i.i, null
  br i1 %.not.i, label %pmix_bfrops_base_tma_disk_stats_create.exit.thread, label %9, !prof !29

9:                                                ; preds = %pmix_tma_malloc.exit.i
  tail call void @llvm.memset.p0.i64(ptr noundef nonnull align 8 dereferenceable(96) %.0.i.i, i8 0, i64 96, i1 false)
  store ptr %.0.i.i, ptr %0, align 8, !tbaa !62
  %10 = load ptr, ptr %1, align 8, !tbaa !125
  %.not.i8 = icmp eq ptr %10, null
  br i1 %.not.i8, label %pmix_bfrops_base_tma_populate_dkstats.exit, label %11

11:                                               ; preds = %9
  br i1 %.not.i.i, label %16, label %12

12:                                               ; preds = %11
  %13 = getelementptr inbounds nuw i8, ptr %2, i64 24
  %14 = load ptr, ptr %13, align 8, !tbaa !194
  %15 = tail call ptr %14(ptr noundef nonnull %2, ptr noundef nonnull %10) #17
  br label %pmix_tma_strdup.exit.i

16:                                               ; preds = %11
  %17 = tail call noalias ptr @strdup(ptr noundef nonnull %10) #17
  br label %pmix_tma_strdup.exit.i

pmix_tma_strdup.exit.i:                           ; preds = %16, %12
  %.0.i.i10 = phi ptr [ %15, %12 ], [ %17, %16 ]
  store ptr %.0.i.i10, ptr %.0.i.i, align 8, !tbaa !125
  br label %pmix_bfrops_base_tma_populate_dkstats.exit

pmix_bfrops_base_tma_populate_dkstats.exit:       ; preds = %9, %pmix_tma_strdup.exit.i
  %18 = getelementptr inbounds nuw i8, ptr %1, i64 8
  %19 = load i64, ptr %18, align 8, !tbaa !270
  %20 = getelementptr inbounds nuw i8, ptr %.0.i.i, i64 8
  store i64 %19, ptr %20, align 8, !tbaa !270
  %21 = getelementptr inbounds nuw i8, ptr %1, i64 16
  %22 = load i64, ptr %21, align 8, !tbaa !271
  %23 = getelementptr inbounds nuw i8, ptr %.0.i.i, i64 16
  store i64 %22, ptr %23, align 8, !tbaa !271
  %24 = getelementptr inbounds nuw i8, ptr %1, i64 24
  %25 = load i64, ptr %24, align 8, !tbaa !272
  %26 = getelementptr inbounds nuw i8, ptr %.0.i.i, i64 24
  store i64 %25, ptr %26, align 8, !tbaa !272
  %27 = getelementptr inbounds nuw i8, ptr %1, i64 32
  %28 = load i64, ptr %27, align 8, !tbaa !273
  %29 = getelementptr inbounds nuw i8, ptr %.0.i.i, i64 32
  store i64 %28, ptr %29, align 8, !tbaa !273
  %30 = getelementptr inbounds nuw i8, ptr %1, i64 40
  %31 = load i64, ptr %30, align 8, !tbaa !274
  %32 = getelementptr inbounds nuw i8, ptr %.0.i.i, i64 40
  store i64 %31, ptr %32, align 8, !tbaa !274
  %33 = getelementptr inbounds nuw i8, ptr %1, i64 48
  %34 = load i64, ptr %33, align 8, !tbaa !275
  %35 = getelementptr inbounds nuw i8, ptr %.0.i.i, i64 48
  store i64 %34, ptr %35, align 8, !tbaa !275
  %36 = getelementptr inbounds nuw i8, ptr %1, i64 56
  %37 = load i64, ptr %36, align 8, !tbaa !276
  %38 = getelementptr inbounds nuw i8, ptr %.0.i.i, i64 56
  store i64 %37, ptr %38, align 8, !tbaa !276
  %39 = getelementptr inbounds nuw i8, ptr %1, i64 64
  %40 = load i64, ptr %39, align 8, !tbaa !277
  %41 = getelementptr inbounds nuw i8, ptr %.0.i.i, i64 64
  store i64 %40, ptr %41, align 8, !tbaa !277
  %42 = getelementptr inbounds nuw i8, ptr %1, i64 72
  %43 = load i64, ptr %42, align 8, !tbaa !278
  %44 = getelementptr inbounds nuw i8, ptr %.0.i.i, i64 72
  store i64 %43, ptr %44, align 8, !tbaa !278
  %45 = getelementptr inbounds nuw i8, ptr %1, i64 80
  %46 = load i64, ptr %45, align 8, !tbaa !279
  %47 = getelementptr inbounds nuw i8, ptr %.0.i.i, i64 80
  store i64 %46, ptr %47, align 8, !tbaa !279
  %48 = getelementptr inbounds nuw i8, ptr %1, i64 88
  %49 = load i64, ptr %48, align 8, !tbaa !280
  %50 = getelementptr inbounds nuw i8, ptr %.0.i.i, i64 88
  store i64 %49, ptr %50, align 8, !tbaa !280
  br label %pmix_bfrops_base_tma_disk_stats_create.exit.thread

pmix_bfrops_base_tma_disk_stats_create.exit.thread: ; preds = %pmix_tma_malloc.exit.i, %pmix_bfrops_base_tma_populate_dkstats.exit
  %.0 = phi i32 [ 0, %pmix_bfrops_base_tma_populate_dkstats.exit ], [ -32, %pmix_tma_malloc.exit.i ]
  ret i32 %.0
}